target datalayout = "e-m:e-p270:32:32-p271:32:32-p272:64:64-i64:64-i128:128-f80:128-n8:16:32:64-S128"
target triple = "x86_64-pc-linux-gnu"

%struct.mi_memid_s = type { %union.anon, i8, i8, i8, i32 }
%union.anon = type { %struct.mi_memid_os_info }
%struct.mi_memid_os_info = type { ptr, i64 }
%struct.mi_arena_s = type { i32, %struct.mi_memid_s, ptr, i64, i64, i64, %struct.mi_memid_s, i32, i8, i8, %union.pthread_mutex_t, i64, i64, ptr, ptr, ptr, ptr, [1 x i64] }
%union.pthread_mutex_t = type { %struct.__pthread_mutex_s }
%struct.__pthread_mutex_s = type { i32, i32, i32, i32, i32, i16, i16, %struct.__pthread_internal_list }
%struct.__pthread_internal_list = type { ptr, ptr }

@mi_arenas_purge_expire = internal global i64 0, align 64

; Function Attrs: nounwind uwtable
define internal i64 @mi_arena_purge_delay() #0 {
  %1 = call i64 @mi_option_get(i32 noundef 15) #12
  %2 = call i64 @mi_option_get(i32 noundef 24) #12
  %3 = mul nsw i64 %1, %2
  ret i64 %3
}

; Function Attrs: nounwind uwtable
define internal void @mi_arena_schedule_purge(ptr noundef %0, i64 noundef %1, i64 noundef %2) #0 {
  %4 = alloca ptr, align 8
  %5 = alloca i64, align 8
  %6 = alloca i64, align 8
  %7 = alloca i64, align 8
  %8 = alloca i32, align 4
  %9 = alloca i64, align 8
  %10 = alloca i64, align 8
  %11 = alloca i64, align 8
  %12 = alloca i8, align 1
  %13 = alloca i64, align 8
  %14 = alloca i8, align 1
  store ptr %0, ptr %4, align 8, !tbaa !16
  store i64 %1, ptr %5, align 8, !tbaa !15
  store i64 %2, ptr %6, align 8, !tbaa !15
  call void @llvm.lifetime.start.p0(i64 8, ptr %7) #13
  %15 = call i64 @mi_arena_purge_delay() #12
  store i64 %15, ptr %7, align 8, !tbaa !15
  %16 = load i64, ptr %7, align 8, !tbaa !15
  %17 = icmp slt i64 %16, 0
  br i1 %17, label %18, label %19

18:                                               ; preds = %3
  store i32 1, ptr %8, align 4
  br label %67

19:                                               ; preds = %3
  %20 = call zeroext i1 @_mi_preloading() #12
  br i1 %20, label %24, label %21

21:                                               ; preds = %19
  %22 = load i64, ptr %7, align 8, !tbaa !15
  %23 = icmp eq i64 %22, 0
  br i1 %23, label %24, label %28

24:                                               ; preds = %21, %19
  %25 = load ptr, ptr %4, align 8, !tbaa !16
  %26 = load i64, ptr %5, align 8, !tbaa !15
  %27 = load i64, ptr %6, align 8, !tbaa !15
  call void @mi_arena_purge(ptr noundef %25, i64 noundef %26, i64 noundef %27) #12
  br label %66

28:                                               ; preds = %21
  call void @llvm.lifetime.start.p0(i64 8, ptr %9) #13
  %29 = call i64 @_mi_clock_now() #12
  %30 = load i64, ptr %7, align 8, !tbaa !15
  %31 = add nsw i64 %29, %30
  store i64 %31, ptr %9, align 8, !tbaa !15
  call void @llvm.lifetime.start.p0(i64 8, ptr %10) #13
  store i64 0, ptr %10, align 8, !tbaa !15
  %32 = load ptr, ptr %4, align 8, !tbaa !16
  %33 = getelementptr inbounds nuw %struct.mi_arena_s, ptr %32, i32 0, i32 12
  %34 = load i64, ptr %9, align 8, !tbaa !15
  store i64 %34, ptr %11, align 8, !tbaa !15
  %35 = load i64, ptr %10, align 8
  %36 = load i64, ptr %11, align 8
  %37 = cmpxchg ptr %33, i64 %35, i64 %36 acq_rel acquire, align 8
  %38 = extractvalue { i64, i1 } %37, 0
  %39 = extractvalue { i64, i1 } %37, 1
  br i1 %39, label %41, label %40

40:                                               ; preds = %28
  store i64 %38, ptr %10, align 8
  br label %41

41:                                               ; preds = %40, %28
  %42 = zext i1 %39 to i8
  store i8 %42, ptr %12, align 1, !tbaa !21
  %43 = load i8, ptr %12, align 1, !tbaa !21, !range !22, !noundef !23
  %44 = trunc i8 %43 to i1
  br i1 %44, label %45, label %55

45:                                               ; preds = %41
  %46 = load i64, ptr %9, align 8, !tbaa !15
  store i64 %46, ptr %13, align 8, !tbaa !15
  %47 = load i64, ptr %10, align 8
  %48 = load i64, ptr %13, align 8
  %49 = cmpxchg ptr @mi_arenas_purge_expire, i64 %47, i64 %48 acq_rel acquire, align 64
  %50 = extractvalue { i64, i1 } %49, 0
  %51 = extractvalue { i64, i1 } %49, 1
  br i1 %51, label %53, label %52

52:                                               ; preds = %45
  store i64 %50, ptr %10, align 8
  br label %53

53:                                               ; preds = %52, %45
  %54 = zext i1 %51 to i8
  store i8 %54, ptr %14, align 1, !tbaa !21
  br label %56

55:                                               ; preds = %41
  br label %56

56:                                               ; preds = %55, %53
  %57 = load ptr, ptr %4, align 8, !tbaa !16
  %58 = getelementptr inbounds nuw %struct.mi_arena_s, ptr %57, i32 0, i32 15
  %59 = load ptr, ptr %58, align 8, !tbaa !78
  %60 = load ptr, ptr %4, align 8, !tbaa !16
  %61 = getelementptr inbounds nuw %struct.mi_arena_s, ptr %60, i32 0, i32 4
  %62 = load i64, ptr %61, align 8, !tbaa !20
  %63 = load i64, ptr %6, align 8, !tbaa !15
  %64 = load i64, ptr %5, align 8, !tbaa !15
  %65 = call zeroext i1 @_mi_bitmap_claim_across(ptr noundef %59, i64 noundef %62, i64 noundef %63, i64 noundef %64, ptr noundef null) #12
  call void @llvm.lifetime.end.p0(i64 8, ptr %10) #13
  call void @llvm.lifetime.end.p0(i64 8, ptr %9) #13
  br label %66

66:                                               ; preds = %56, %24
  store i32 0, ptr %8, align 4
  br label %67

67:                                               ; preds = %66, %18
  call void @llvm.lifetime.end.p0(i64 8, ptr %7) #13
  %68 = load i32, ptr %8, align 4
  switch i32 %68, label %70 [
    i32 0, label %69
    i32 1, label %69
  ]

69:                                               ; preds = %67, %67
  ret void

70:                                               ; preds = %67
  unreachable
}