; Function Attrs: nounwind uwtable
define internal fastcc void @mi_arena_schedule_purge(ptr noundef nonnull captures(none) %0, i64 noundef %1, i64 noundef range(i64 0, 288230376151711744) %2) unnamed_addr #0 {
  %4 = tail call i64 @mi_option_get(i32 noundef 15) #20
  %5 = tail call i64 @mi_option_get(i32 noundef 24) #20
  %6 = mul nsw i64 %5, %4
  %7 = icmp slt i64 %6, 0
  br i1 %7, label %26, label %8

8:                                                ; preds = %3
  %9 = tail call zeroext i1 @_mi_preloading() #20
  %10 = icmp eq i64 %6, 0
  %or.cond = or i1 %10, %9
  br i1 %or.cond, label %11, label %12

11:                                               ; preds = %8
  tail call fastcc void @mi_arena_purge(ptr noundef %0, i64 noundef %1, i64 noundef %2) #19
  br label %26

12:                                               ; preds = %8
  %13 = tail call i64 @_mi_clock_now() #20
  %14 = add nsw i64 %13, %6
  %15 = getelementptr inbounds nuw i8, ptr %0, i64 144
  %16 = cmpxchg ptr %15, i64 0, i64 %14 acq_rel acquire, align 8
  %17 = extractvalue { i64, i1 } %16, 1
  br i1 %17, label %18, label %20

18:                                               ; preds = %12
  %19 = cmpxchg ptr @mi_arenas_purge_expire, i64 0, i64 %14 acq_rel acquire, align 64
  br label %20

20:                                               ; preds = %12, %18
  %21 = getelementptr inbounds nuw i8, ptr %0, i64 168
  %22 = load ptr, ptr %21, align 8, !tbaa !59
  %23 = getelementptr inbounds nuw i8, ptr %0, i64 48
  %24 = load i64, ptr %23, align 8, !tbaa !17
  %25 = tail call zeroext i1 @_mi_bitmap_claim_across(ptr noundef %22, i64 noundef %24, i64 noundef %2, i64 noundef %1, ptr noundef null) #20
  br label %26

26:                                               ; preds = %11, %20, %3
  ret void
}